; Function Attrs: mustprogress nofree norecurse nosync nounwind willreturn memory(none) uwtable
define { i64, i64 } @_ZN5arrow15BasicDecimal12811GetMaxValueEi(i32 noundef %0) local_unnamed_addr #6 align 2 personality ptr @__gxx_personality_v0 {
  %2 = sext i32 %0 to i64
  %3 = getelementptr inbounds [39 x %"class.arrow::BasicDecimal128"], ptr @_ZN5arrowL22kDecimal128PowersOfTenE, i64 0, i64 %2
  %4 = getelementptr inbounds nuw i8, ptr %3, i64 8
  %5 = load i64, ptr %4, align 8, !tbaa !7
  %6 = load i64, ptr %3, align 16, !tbaa !7
  %7 = add i64 %6, -1
  %8 = icmp eq i64 %6, 0
  %.neg.i.i = sext i1 %8 to i64
  %9 = add i64 %5, %.neg.i.i
  %.fca.0.insert.i = insertvalue { i64, i64 } poison, i64 %7, 0
  %.fca.1.insert.i = insertvalue { i64, i64 } %.fca.0.insert.i, i64 %9, 1
  ret { i64, i64 } %.fca.1.insert.i
}